target datalayout = "e-m:e-p270:32:32-p271:32:32-p272:64:64-i64:64-i128:128-f80:128-n8:16:32:64-S128"
target triple = "x86_64-pc-linux-gnu"

@je_opt_thp = hidden global i32 0, align 4
@je_init_system_thp_mode = hidden global i32 0, align 4

; Function Attrs: nounwind uwtable
define internal zeroext i1 @pages_nohuge_impl(ptr noundef %0, i64 noundef %1, i1 noundef zeroext %2) #0 {
  %4 = alloca ptr, align 8
  %5 = alloca i64, align 8
  %6 = alloca i8, align 1
  store ptr %0, ptr %4, align 8, !tbaa !4
  store i64 %1, ptr %5, align 8, !tbaa !8
  %7 = zext i1 %2 to i8
  store i8 %7, ptr %6, align 1, !tbaa !12
  %8 = load i8, ptr %6, align 1, !tbaa !12, !range !14, !noundef !15
  %9 = trunc i8 %8 to i1
  br i1 %9, label %10, label %15

10:                                               ; preds = %3
  br label %11

11:                                               ; preds = %10
  br label %12

12:                                               ; preds = %11
  br label %13

13:                                               ; preds = %12
  br label %14

14:                                               ; preds = %13
  br label %15

15:                                               ; preds = %14, %3
  %16 = load ptr, ptr %4, align 8, !tbaa !4
  %17 = load i64, ptr %5, align 8, !tbaa !8
  %18 = call i32 @madvise(ptr noundef %16, i64 noundef %17, i32 noundef 15) #10
  %19 = icmp ne i32 %18, 0
  ret i1 %19
}

; Function Attrs: nounwind uwtable
define internal zeroext i1 @pages_huge_impl(ptr noundef %0, i64 noundef %1, i1 noundef zeroext %2) #0 {
  %4 = alloca ptr, align 8
  %5 = alloca i64, align 8
  %6 = alloca i8, align 1
  store ptr %0, ptr %4, align 8, !tbaa !4
  store i64 %1, ptr %5, align 8, !tbaa !8
  %7 = zext i1 %2 to i8
  store i8 %7, ptr %6, align 1, !tbaa !12
  %8 = load i8, ptr %6, align 1, !tbaa !12, !range !14, !noundef !15
  %9 = trunc i8 %8 to i1
  br i1 %9, label %10, label %15

10:                                               ; preds = %3
  br label %11

11:                                               ; preds = %10
  br label %12

12:                                               ; preds = %11
  br label %13

13:                                               ; preds = %12
  br label %14

14:                                               ; preds = %13
  br label %15

15:                                               ; preds = %14, %3
  %16 = load ptr, ptr %4, align 8, !tbaa !4
  %17 = load i64, ptr %5, align 8, !tbaa !8
  %18 = call i32 @madvise(ptr noundef %16, i64 noundef %17, i32 noundef 14) #10
  %19 = icmp ne i32 %18, 0
  ret i1 %19
}

; Function Attrs: nounwind uwtable
define internal zeroext i1 @pages_nohuge_unaligned(ptr noundef %0, i64 noundef %1) #0 {
  %3 = alloca ptr, align 8
  %4 = alloca i64, align 8
  store ptr %0, ptr %3, align 8, !tbaa !4
  store i64 %1, ptr %4, align 8, !tbaa !8
  %5 = load ptr, ptr %3, align 8, !tbaa !4
  %6 = load i64, ptr %4, align 8, !tbaa !8
  %7 = call zeroext i1 @pages_nohuge_impl(ptr noundef %5, i64 noundef %6, i1 noundef zeroext false)
  ret i1 %7
}

; Function Attrs: nounwind uwtable
define internal zeroext i1 @pages_huge_unaligned(ptr noundef %0, i64 noundef %1) #0 {
  %3 = alloca ptr, align 8
  %4 = alloca i64, align 8
  store ptr %0, ptr %3, align 8, !tbaa !4
  store i64 %1, ptr %4, align 8, !tbaa !8
  %5 = load ptr, ptr %3, align 8, !tbaa !4
  %6 = load i64, ptr %4, align 8, !tbaa !8
  %7 = call zeroext i1 @pages_huge_impl(ptr noundef %5, i64 noundef %6, i1 noundef zeroext false)
  ret i1 %7
}

; Function Attrs: nounwind uwtable
define hidden void @je_pages_set_thp_state(ptr noundef %0, i64 noundef %1) #0 {
  %3 = alloca ptr, align 8
  %4 = alloca i64, align 8
  store ptr %0, ptr %3, align 8, !tbaa !4
  store i64 %1, ptr %4, align 8, !tbaa !8
  %5 = load i32, ptr @je_opt_thp, align 4, !tbaa !16
  %6 = icmp eq i32 %5, 0
  br i1 %6, label %11, label %7

7:                                                ; preds = %2
  %8 = load i32, ptr @je_opt_thp, align 4, !tbaa !16
  %9 = load i32, ptr @je_init_system_thp_mode, align 4, !tbaa !16
  %10 = icmp eq i32 %8, %9
  br i1 %10, label %11, label %12

11:                                               ; preds = %7, %2
  br label %36

12:                                               ; preds = %7
  br label %13

13:                                               ; preds = %12
  br label %14

14:                                               ; preds = %13
  %15 = load i32, ptr @je_opt_thp, align 4, !tbaa !16
  %16 = icmp eq i32 %15, 1
  br i1 %16, label %17, label %26

17:                                               ; preds = %14
  %18 = load i32, ptr @je_init_system_thp_mode, align 4, !tbaa !16
  %19 = icmp ne i32 %18, 2
  br i1 %19, label %20, label %26

20:                                               ; preds = %17
  br label %21

21:                                               ; preds = %20
  br label %22

22:                                               ; preds = %21
  %23 = load ptr, ptr %3, align 8, !tbaa !4
  %24 = load i64, ptr %4, align 8, !tbaa !8
  %25 = call zeroext i1 @pages_huge_unaligned(ptr noundef %23, i64 noundef %24)
  br label %36

26:                                               ; preds = %17, %14
  %27 = load i32, ptr @je_opt_thp, align 4, !tbaa !16
  %28 = icmp eq i32 %27, 2
  br i1 %28, label %29, label %35

29:                                               ; preds = %26
  br label %30

30:                                               ; preds = %29
  br label %31

31:                                               ; preds = %30
  %32 = load ptr, ptr %3, align 8, !tbaa !4
  %33 = load i64, ptr %4, align 8, !tbaa !8
  %34 = call zeroext i1 @pages_nohuge_unaligned(ptr noundef %32, i64 noundef %33)
  br label %35

35:                                               ; preds = %31, %26
  br label %36

36:                                               ; preds = %11, %35, %22
  ret void
}