; Function Attrs: nounwind uwtable
define hidden void @je_pages_set_thp_state(ptr noundef %0, i64 noundef %1) local_unnamed_addr #0 {
  %3 = load i32, ptr @je_opt_thp, align 4, !tbaa !4
  %4 = icmp eq i32 %3, 0
  br i1 %4, label %14, label %5

5:                                                ; preds = %2
  %6 = load i32, ptr @je_init_system_thp_mode, align 4, !tbaa !4
  %7 = icmp eq i32 %3, %6
  br i1 %7, label %14, label %8

8:                                                ; preds = %5
  %9 = icmp eq i32 %3, 1
  %10 = icmp ne i32 %6, 2
  %or.cond = and i1 %9, %10
  br i1 %or.cond, label %.sink.split, label %11

11:                                               ; preds = %8
  %12 = icmp eq i32 %3, 2
  br i1 %12, label %.sink.split, label %14

.sink.split:                                      ; preds = %11, %8
  %.sink = phi i32 [ 14, %8 ], [ 15, %11 ]
  %13 = tail call i32 @madvise(ptr noundef %0, i64 noundef %1, i32 noundef %.sink) #8
  br label %14

14:                                               ; preds = %.sink.split, %11, %2, %5
  ret void
}